(lp0
ccopy_reg
_reconstructor
p1
(cRoom
Room
p2
c__builtin__
object
p3
Ntp4
Rp5
(dp6
S'paths'
p7
(dp8
S'down'
p9
NsS'right'
p10
NsS'up'
p11
NsS'left'
p12
NssS'items'
p13
(lp14
sS'name'
p15
S'Dark room'
p16
sS'entities'
p17
(lp18
sS'description'
p19
S'You see an empty room'
p20
sba.